(dp0
cnumpy.core.multiarray
scalar
p1
(cnumpy
dtype
p2
(S'f8'
p3
I0
I1
tp4
Rp5
(I3
S'<'
p6
NNNI-1
I-1
I0
tp7
bS'\x00\x00\x00\x00\x00\x10\x88@'
p8
tp9
Rp10
(lp11
(lp12
(lp13
(lp14
S'A277'
p15
aS'B334'
p16
aa(lp17
g1
(g5
S'\x8f\xc2\xf5(\\\x8f\xfe?'
p18
tp19
Rp20
ag1
(g5
S'R\xb8\x1e\x85\xebQ\n@'
p21
tp22
Rp23
aaa(lp24
(lp25
S'A277'
p26
aS'B392'
p27
aa(lp28
g1
(g5
S'\xecQ\xb8\x1e\x85\xeb\xfd?'
p29
tp30
Rp31
ag1
(g5
S'\x14\xaeG\xe1z\x14\n@'
p32
tp33
Rp34
aaa(lp35
(lp36
S'A277'
p37
aS'B394'
p38
aa(lp39
g1
(g5
S'\xf6(\\\x8f\xc2\xf5\x00@'
p40
tp41
Rp42
ag1
(g5
S'\xf6(\\\x8f\xc2\xf5\n@'
p43
tp44
Rp45
aaa(lp46
(lp47
S'A277'
p48
aS'B402'
p49
aa(lp50
g1
(g5
S'\x85\xebQ\xb8\x1e\x85\x01@'
p51
tp52
Rp53
ag1
(g5
S'\xd7\xa3p=\n\xd7\t@'
p54
tp55
Rp56
aaaa(dp57
S'B394'
p58
(lp59
F769.9638251299632
aI14
asS'B402'
p60
(lp61
F769.7530130371746
aI1
asS'A277B394'
p62
(lp63
F769.9911913692941
aI7
asS'A294B402'
p64
(lp65
F768.7197370084693
aI0
asS'A291'
p66
(lp67
F769.9775502944674
aI3
asS'A294'
p68
(lp69
F769.4972861316649
aI1
asS'A277B392'
p70
(lp71
F769.3604563485846
aI0
asS'S'
p72
(lp73
F769.9849258123885
aF25.0
asS'A285B402'
p74
(lp75
F768.7197370084693
aI0
asS'A294B394'
p76
(lp77
F769.1972864766175
aI1
asS'B392'
p78
(lp79
F769.9290414138244
aI4
asS'A294B392'
p80
(lp81
F766.6059964891323
aI0
asS'A277'
p82
(lp83
F770.0281236431074
aI13
asS'A285B334'
p84
(lp85
F769.6382245600247
aI1
asS'A291B334'
p86
(lp87
F769.7614746364313
aI2
asS'A291B402'
p88
(lp89
F768.7197370084693
aI0
asS'A294B334'
p90
(lp91
F769.4972861316649
aI1
asS'A285'
p92
(lp93
F769.9940690320675
aI7
asS'A291B392'
p94
(lp95
F769.6034356546975
aI0
asS'B334'
p96
(lp97
F769.9459501301782
aI7
asS'A291B394'
p98
(lp99
F769.9625255189211
aI4
asS'A285B394'
p100
(lp101
F769.9940690320675
aI2
asS'A277B334'
p102
(lp103
F770.0281236431074
aI7
asS'A285B392'
p104
(lp105
F769.3159768287569
aI0
asS'A277B402'
p106
(lp107
F769.7556591414024
aI0
asasg1
(g5
S'\x00\x00\x00\x00\x00@\x80@'
p108
tp109
Rp110
(lp111
(lp112
(lp113
(lp114
S'A174'
p115
aS'B254'
p116
aa(lp117
g1
(g5
S'333333\xfb?'
p118
tp119
Rp120
ag1
(g5
S'=\n\xd7\xa3p=\x04@'
p121
tp122
Rp123
aaa(lp124
(lp125
S'A174'
p126
aS'B256'
p127
aa(lp128
g1
(g5
S'{\x14\xaeG\xe1z\xfc?'
p129
tp130
Rp131
ag1
(g5
S'R\xb8\x1e\x85\xebQ\x04@'
p132
tp133
Rp134
aaa(lp135
(lp136
S'A174'
p137
aS'B257'
p138
aa(lp139
g1
(g5
S'\x00\x00\x00\x00\x00\x00\x00@'
p140
tp141
Rp142
ag1
(g5
S'\xcd\xcc\xcc\xcc\xcc\xcc\x08@'
p143
tp144
Rp145
aaa(lp146
(lp147
S'A174'
p148
aS'B258'
p149
aa(lp150
g1
(g5
S'R\xb8\x1e\x85\xebQ\xf8?'
p151
tp152
Rp153
ag1
(g5
S'\xa4p=\n\xd7\xa3\x04@'
p154
tp155
Rp156
aaa(lp157
(lp158
S'A174'
p159
aS'B259'
p160
aa(lp161
g1
(g5
S'\x1f\x85\xebQ\xb8\x1e\xfd?'
p162
tp163
Rp164
ag1
(g5
S'\x1f\x85\xebQ\xb8\x1e\t@'
p165
tp166
Rp167
aaa(lp168
(lp169
S'A174'
p170
aS'B260'
p171
aa(lp172
g1
(g5
S'\x8f\xc2\xf5(\\\x8f\xfe?'
p173
tp174
Rp175
ag1
(g5
S'\xf6(\\\x8f\xc2\xf5\x04@'
p176
tp177
Rp178
aaa(lp179
(lp180
S'A174'
p181
aS'B85'
p182
aa(lp183
g1
(g5
S'\xf6(\\\x8f\xc2\xf5\xfc?'
p184
tp185
Rp186
ag1
(g5
S'ffffff\x06@'
p187
tp188
Rp189
aaaa(dp190
S'A190B254'
p191
(lp192
F516.8730942898784
aI0
asS'A190B85'
p193
(lp194
F518.0584458020052
aI0
asS'A189B85'
p195
(lp196
F515.8202361035004
aI0
asS'B260'
p197
(lp198
F519.6455768781799
aI0
asS'A174'
p199
(lp200
F519.9999671178455
aI17
asS'A189B260'
p201
(lp202
F519.6289452049705
aI0
asS'A191B256'
p203
(lp204
F516.0683830879534
aI0
asS'A191B260'
p205
(lp206
F519.6289452049705
aI0
asS'A190B260'
p207
(lp208
F519.6289452049705
aI0
asS'A174B258'
p209
(lp210
F519.2485497356945
aI0
asS'A174B259'
p211
(lp212
F519.8907036816622
aI1
asS'A192B254'
p213
(lp214
F516.4094278527717
aI0
asS'A192B256'
p215
(lp216
F516.4094278527717
aI0
asS'A192B257'
p217
(lp218
F516.4094278527717
aI0
asS'A192B258'
p219
(lp220
F517.5809145633013
aI0
asS'A192B259'
p221
(lp222
F519.1030869433736
aI0
asS'A174B254'
p223
(lp224
F515.8895783963768
aI0
asS'A174B256'
p225
(lp226
F516.0683830879534
aI0
asS'A174B257'
p227
(lp228
F516.2914860505591
aI0
asS'B259'
p229
(lp230
F519.9823456362672
aI3
asS'B258'
p231
(lp232
F517.7235765348308
aI0
asS'B257'
p233
(lp234
F516.5826527549311
aI0
asS'B256'
p235
(lp236
F517.0495024755597
aI0
asS'B254'
p237
(lp238
F516.0748749659583
aI0
asS'B85'
p239
(lp240
F520.0007684048543
aI30
asg72
(lp241
F520.0007684048543
aF15.0
asS'A189B258'
p242
(lp243
F517.5809145633013
aI0
asS'A189B259'
p244
(lp245
F519.1030869433736
aI0
asS'A190B258'
p246
(lp247
F517.5809145633013
aI0
asS'A190B259'
p248
(lp249
F519.1030869433736
aI0
asS'A190B256'
p250
(lp251
F516.0683830879534
aI0
asS'A192B260'
p252
(lp253
F519.6289452049705
aI0
asS'A189B256'
p254
(lp255
F516.0683830879534
aI0
asS'A189B257'
p256
(lp257
F516.2914860505591
aI0
asS'A189'
p258
(lp259
F516.1375079366217
aI0
asS'A192B85'
p260
(lp261
F516.7941720035183
aI0
asS'A191B257'
p262
(lp263
F516.2914860505591
aI0
asS'A174B260'
p264
(lp265
F519.6455768781799
aI1
asS'A191B254'
p266
(lp267
F515.1726272235882
aI0
asS'A174B85'
p268
(lp269
F519.9999671178455
aI32
asS'A190B257'
p270
(lp271
F516.2914860505591
aI0
asS'A191'
p272
(lp273
F516.2982947857496
aI0
asS'A190'
p274
(lp275
F519.9713951603228
aI1
asS'A192'
p276
(lp277
F516.7630259268694
aI0
asS'A191B85'
p278
(lp279
F515.8765198955934
aI0
asS'A189B254'
p280
(lp281
F512.6209482251639
aI0
asS'A191B259'
p282
(lp283
F519.1030869433736
aI0
asS'A191B258'
p284
(lp285
F517.5809145633013
aI0
asasg1
(g5
S'\x00\x00\x00\x00\x00\xe0p@'
p286
tp287
Rp288
(lp289
(lp290
(lp291
(lp292
S'A60'
p293
aS'B101'
p294
aa(lp295
g1
(g5
S'q=\n\xd7\xa3p\xf9?'
p296
tp297
Rp298
ag1
(g5
S')\\\x8f\xc2\xf5(\x04@'
p299
tp300
Rp301
aaa(lp302
(lp303
S'A60'
p304
aS'B114'
p305
aa(lp306
g1
(g5
S'\x8f\xc2\xf5(\\\x8f\xf6?'
p307
tp308
Rp309
ag1
(g5
S'q=\n\xd7\xa3p\x01@'
p310
tp311
Rp312
aaa(lp313
(lp314
S'A60'
p315
aS'B116'
p316
aa(lp317
g1
(g5
S'\xe1z\x14\xaeG\xe1\xf2?'
p318
tp319
Rp320
ag1
(g5
S'\xc3\xf5(\\\x8f\xc2\x03@'
p321
tp322
Rp323
aaa(lp324
(lp325
S'A60'
p326
aS'B117'
p327
aa(lp328
g1
(g5
S'ffffff\xf6?'
p329
tp330
Rp331
ag1
(g5
S')\\\x8f\xc2\xf5(\x04@'
p332
tp333
Rp334
aaa(lp335
(lp336
S'A60'
p337
aS'B118'
p338
aa(lp339
g1
(g5
S'\x14\xaeG\xe1z\x14\xf2?'
p340
tp341
Rp342
ag1
(g5
S'\xb8\x1e\x85\xebQ\xb8\x02@'
p343
tp344
Rp345
aaa(lp346
(lp347
S'A60'
p348
aS'B119'
p349
aa(lp350
g1
(g5
S'=\n\xd7\xa3p=\xf6?'
p351
tp352
Rp353
ag1
(g5
S'q=\n\xd7\xa3p\x03@'
p354
tp355
Rp356
aaa(lp357
(lp358
S'A60'
p359
aS'B120'
p360
aa(lp361
g1
(g5
S'\x00\x00\x00\x00\x00\x00\xf4?'
p362
tp363
Rp364
ag1
(g5
S'\xf6(\\\x8f\xc2\xf5\x06@'
p365
tp366
Rp367
aaa(lp368
(lp369
S'A60'
p370
aS'B121'
p371
aa(lp372
g1
(g5
S'\xb8\x1e\x85\xebQ\xb8\xf6?'
p373
tp374
Rp375
ag1
(g5
S'\xd7\xa3p=\n\xd7\x03@'
p376
tp377
Rp378
aaa(lp379
(lp380
S'A60'
p381
aS'B85'
p382
aa(lp383
g1
(g5
S'{\x14\xaeG\xe1z\xf8?'
p384
tp385
Rp386
ag1
(g5
S'\xe1z\x14\xaeG\xe1\x04@'
p387
tp388
Rp389
aaaa(dp390
S'B118'
p391
(lp392
F266.8446777618914
aI0
asS'B119'
p393
(lp394
F268.0703362341532
aI0
asS'A60B121'
p395
(lp396
F269.09080299197257
aI0
asS'A60B120'
p397
(lp398
F268.67347706060997
aI0
asS'B114'
p399
(lp400
F270.0113111336204
aI3
asS'A92B101'
p401
(lp402
F265.8844698809823
aI0
asS'B116'
p403
(lp404
F266.78411614930735
aI0
asS'B117'
p405
(lp406
F266.97870198944173
aI0
asS'A94B120'
p407
(lp408
F268.67347706060997
aI0
asS'A94B121'
p409
(lp410
F269.09080299197257
aI0
asS'A91B119'
p411
(lp412
F267.05748142108166
aI0
asS'A91B116'
p413
(lp414
F264.95089085037023
aI0
asS'A94'
p415
(lp416
F267.32338435175626
aI0
asS'A60B101'
p417
(lp418
F269.6217561981251
aI1
asS'A94B101'
p419
(lp420
F267.6707255735004
aI0
asS'A91'
p421
(lp422
F269.9724570177203
aI16
asS'A91B117'
p423
(lp424
F265.8370483914013
aI0
asS'A93'
p425
(lp426
F266.8520977319059
aI0
asS'A92'
p427
(lp428
F267.133456207246
aI0
asS'A91B118'
p429
(lp430
F266.78411614930735
aI0
asS'A93B117'
p431
(lp432
F266.8520977319059
aI0
asS'A93B114'
p433
(lp434
F266.8520977319059
aI0
asg239
(lp435
F269.9850113021178
aI21
asS'A91B85'
p436
(lp437
F269.9729673559122
aI4
asS'A91B114'
p438
(lp439
F269.75548907807746
aI2
asS'A93B118'
p440
(lp441
F266.8520977319059
aI0
asS'A93B119'
p442
(lp443
F267.05748142108166
aI0
asS'B121'
p444
(lp445
F269.09080299197257
aI0
asS'B120'
p446
(lp447
F268.67347706060997
aI0
asS'A93B116'
p448
(lp449
F266.8520977319059
aI0
asS'A92B119'
p450
(lp451
F267.42675738643044
aI0
asS'A92B118'
p452
(lp453
F266.78411614930735
aI0
asS'A92B117'
p454
(lp455
F265.8370483914013
aI0
asS'A92B116'
p456
(lp457
F265.2924172748073
aI0
asS'B101'
p458
(lp459
F268.9809011408376
aI2
asS'A92B114'
p460
(lp461
F264.95089085037023
aI0
asS'A60B85'
p462
(lp463
F269.9600459336477
aI21
asS'A60B118'
p464
(lp465
F267.27597341620896
aI0
asS'A60B119'
p466
(lp467
F267.9639594799614
aI0
asg72
(lp468
F270.0113111336204
aF17.0
asS'A94B119'
p469
(lp470
F267.32338435175626
aI0
asS'A94B118'
p471
(lp472
F267.32338435175626
aI0
asS'A94B114'
p473
(lp474
F267.32338435175626
aI0
asS'A94B117'
p475
(lp476
F267.32338435175626
aI0
asS'A94B116'
p477
(lp478
F267.32338435175626
aI0
asS'A60B114'
p479
(lp480
F269.87353064891846
aI1
asS'A92B85'
p481
(lp482
F267.05748142108166
aI0
asS'A60B116'
p483
(lp484
F264.95089085037023
aI0
asS'A60B117'
p485
(lp486
F267.27279636211114
aI0
asS'A93B85'
p487
(lp488
F266.8944065273559
aI0
asS'A94B85'
p489
(lp490
F267.32338435175626
aI0
asS'A91B101'
p491
(lp492
F269.9307913042167
aI1
asS'A60'
p493
(lp494
F269.9619010898753
aI11
asS'A92B120'
p495
(lp496
F268.67347706060997
aI0
asS'A92B121'
p497
(lp498
F269.09080299197257
aI0
asS'A93B101'
p499
(lp500
F266.8520977319059
aI0
asS'A91B121'
p501
(lp502
F269.1748997025881
aI0
asS'A91B120'
p503
(lp504
F268.72230405285484
aI0
asS'A93B121'
p505
(lp506
F269.09080299197257
aI0
asS'A93B120'
p507
(lp508
F268.67347706060997
aI0
asasg1
(g5
S'\x00\x00\x00\x00\x00\x004@'
p509
tp510
Rp511
(lp512
(lp513
(lp514
(lp515
S'A1'
p516
aS'B1'
p517
aa(lp518
g1
(g5
S'\x00\x00\x00\x00\x00\x00\x00@'
p519
tp520
Rp521
ag1
(g5
S'\x00\x00\x00\x00\x00\x00\x00@'
p522
tp523
Rp524
aaaa(dp525
S'A1'
p526
(lp527
F19.99939583484182
aF20.0
asS'A1B1'
p528
(lp529
F20.00818840239086
aF28.0
asg72
(lp530
F19.99939583484182
aF14.0
asS'B1'
p531
(lp532
F20.00818840239086
aF38.0
asasg1
(g5
S'\x00\x00\x00\x00\x00\xe0\x8f@'
p533
tp534
Rp535
(lp536
(lp537
(lp538
(lp539
S'A365'
p540
aS'B520'
p541
aa(lp542
g1
(g5
S'q=\n\xd7\xa3p\x05@'
p543
tp544
Rp545
ag1
(g5
S'{\x14\xaeG\xe1z\x10@'
p546
tp547
Rp548
aaa(lp549
(lp550
S'A365'
p551
aS'B533'
p552
aa(lp553
g1
(g5
S')\\\x8f\xc2\xf5(\x04@'
p554
tp555
Rp556
ag1
(g5
S'\x14\xaeG\xe1z\x14\x12@'
p557
tp558
Rp559
aaa(lp560
(lp561
S'A365'
p562
aS'B545'
p563
aa(lp564
g1
(g5
S'\x8f\xc2\xf5(\\\x8f\x04@'
p565
tp566
Rp567
ag1
(g5
S'\x9a\x99\x99\x99\x99\x99\x11@'
p568
tp569
Rp570
aaa(lp571
(lp572
S'A365'
p573
aS'B549'
p574
aa(lp575
g1
(g5
S'\xcd\xcc\xcc\xcc\xcc\xcc\x04@'
p576
tp577
Rp578
ag1
(g5
S'H\xe1z\x14\xaeG\x13@'
p579
tp580
Rp581
aaa(lp582
(lp583
S'A365'
p584
aS'B550'
p585
aa(lp586
g1
(g5
S'\xecQ\xb8\x1e\x85\xeb\x05@'
p587
tp588
Rp589
ag1
(g5
S'R\xb8\x1e\x85\xebQ\x12@'
p590
tp591
Rp592
aaa(lp593
(lp594
S'A365'
p595
aS'B551'
p596
aa(lp597
g1
(g5
S'q=\n\xd7\xa3p\x03@'
p598
tp599
Rp600
ag1
(g5
S'{\x14\xaeG\xe1z\x10@'
p601
tp602
Rp603
aaa(lp604
(lp605
S'A365'
p606
aS'B552'
p607
aa(lp608
g1
(g5
S'\x1f\x85\xebQ\xb8\x1e\x05@'
p609
tp610
Rp611
ag1
(g5
S'\x00\x00\x00\x00\x00\x00\x10@'
p612
tp613
Rp614
aaa(lp615
(lp616
S'A365'
p617
aS'B553'
p618
aa(lp619
g1
(g5
S'\\\x8f\xc2\xf5(\\\x05@'
p620
tp621
Rp622
ag1
(g5
S'\x00\x00\x00\x00\x00\x00\x11@'
p623
tp624
Rp625
aaaa(dp626
S'A371B550'
p627
(lp628
F1018.4308952749141
aI0
asS'A371B551'
p629
(lp630
F1019.3900722966312
aI0
asS'A371B552'
p631
(lp632
F1019.2613430749457
aI0
asS'A371B553'
p633
(lp634
F1019.7851822064509
aI0
asS'A365B551'
p635
(lp636
F1019.1553924724795
aI0
asS'A390B520'
p637
(lp638
F1018.5060029090243
aI0
asS'A392B545'
p639
(lp640
F1015.976510070667
aI0
asS'A384B520'
p641
(lp642
F1018.1275390853767
aI0
asS'A371'
p643
(lp644
F1018.9495733490688
aI0
asS'A390'
p645
(lp646
F1019.9987972299934
aI10
asS'A390B549'
p647
(lp648
F1018.9864786448491
aI0
asS'A384B549'
p649
(lp650
F1016.2879608183076
aI0
asS'A384B551'
p651
(lp652
F1019.1553924724795
aI0
asS'A392B549'
p653
(lp654
F1016.9895117797545
aI0
asS'A390B545'
p655
(lp656
F1019.9987972299934
aI15
asS'A384B545'
p657
(lp658
F1019.7836535673321
aI6
asS'A392B520'
p659
(lp660
F1015.976510070667
aI0
asS'A384B553'
p661
(lp662
F1019.7851822064509
aI1
asS'A365B549'
p663
(lp664
F1016.2879608183076
aI0
asS'B550'
p665
(lp666
F1019.372679324944
aI1
asS'B551'
p667
(lp668
F1019.4538918628473
aI0
asS'B552'
p669
(lp670
F1019.2613430749457
aI1
asS'B553'
p671
(lp672
F1019.7851822064509
aI0
asS'A371B520'
p673
(lp674
F1015.4163752660913
aI0
asS'B533'
p675
(lp676
F1019.4239446611255
aI0
asS'A384B552'
p677
(lp678
F1019.2613430749457
aI0
asS'A365B520'
p679
(lp680
F1018.6564751803837
aI1
asS'A365'
p681
(lp682
F1019.9610322928893
aI4
asS'B545'
p683
(lp684
F1020.0040757354934
aI19
asS'A371B545'
p685
(lp686
F1019.1553924724795
aI0
asS'A384'
p687
(lp688
F1019.9501434218951
aI0
asS'A384B533'
p689
(lp690
F1015.8985874260612
aI0
asS'A371B549'
p691
(lp692
F1016.2879608183076
aI0
asS'A390B533'
p693
(lp694
F1019.6099892239026
aI1
asS'A392'
p695
(lp696
F1016.4782121056081
aI0
asg72
(lp697
F1020.0040757354934
aF30.0
asS'A365B553'
p698
(lp699
F1019.7851822064509
aI0
asS'A365B552'
p700
(lp701
F1019.2613430749457
aI0
asS'A392B553'
p702
(lp703
F1019.7851822064509
aI0
asS'A392B552'
p704
(lp705
F1019.2613430749457
aI0
asS'A390B553'
p706
(lp707
F1019.7851822064509
aI0
asS'A390B552'
p708
(lp709
F1019.2613430749457
aI0
asS'A390B551'
p710
(lp711
F1019.1553924724795
aI0
asS'A390B550'
p712
(lp713
F1018.4308952749141
aI0
asS'A392B533'
p714
(lp715
F1015.976510070667
aI0
asS'A365B545'
p716
(lp717
F1019.9610322928893
aI9
asS'A365B533'
p718
(lp719
F1018.8743496137159
aI0
asS'A371B533'
p720
(lp721
F1016.1230234840913
aI0
asS'B520'
p722
(lp723
F1019.545982363171
aI0
asS'A365B550'
p724
(lp725
F1019.9542912062689
aI1
asS'A392B551'
p726
(lp727
F1019.1553924724795
aI0
asS'B549'
p728
(lp729
F1018.4567981418072
aI0
asS'A384B550'
p730
(lp731
F1019.7851822064509
aI1
asS'A392B550'
p732
(lp733
F1018.4308952749141
aI0
asas.